target datalayout = "e-m:e-p270:32:32-p271:32:32-p272:64:64-i64:64-i128:128-f80:128-n8:16:32:64-S128"
target triple = "x86_64-pc-linux-gnu"

%struct.H68 = type { i64, i64, i64, i32, i32, i32, ptr, ptr, ptr, ptr }

; Function Attrs: alwaysinline nounwind uwtable
define internal i64 @BrotliUnalignedRead64(ptr noundef %0) #3 {
  %2 = alloca ptr, align 8
  %3 = alloca i64, align 8
  store ptr %0, ptr %2, align 8, !tbaa !48
  call void @llvm.lifetime.start.p0(i64 8, ptr %3) #10
  %4 = load ptr, ptr %2, align 8, !tbaa !48
  call void @llvm.memcpy.p0.p0.i64(ptr align 8 %3, ptr align 1 %4, i64 8, i1 false)
  %5 = load i64, ptr %3, align 8, !tbaa !75
  call void @llvm.lifetime.end.p0(i64 8, ptr %3) #10
  ret i64 %5
}

; Function Attrs: alwaysinline nounwind uwtable
define internal i64 @HashBytesH68(ptr noalias noundef %0, i64 noundef %1) #3 {
  %3 = alloca ptr, align 8
  %4 = alloca i64, align 8
  %5 = alloca i64, align 8
  store ptr %0, ptr %3, align 8, !tbaa !76
  store i64 %1, ptr %4, align 8, !tbaa !75
  call void @llvm.lifetime.start.p0(i64 8, ptr %5) #10
  %6 = load ptr, ptr %3, align 8, !tbaa !76
  %7 = call i64 @BrotliUnalignedRead64(ptr noundef %6)
  %8 = load i64, ptr %4, align 8, !tbaa !75
  %9 = mul i64 %7, %8
  store i64 %9, ptr %5, align 8, !tbaa !75
  %10 = load i64, ptr %5, align 8, !tbaa !75
  %11 = lshr i64 %10, 41
  call void @llvm.lifetime.end.p0(i64 8, ptr %5) #10
  ret i64 %11
}

; Function Attrs: nounwind uwtable
define internal void @PrepareH68(ptr noalias noundef %0, i32 noundef %1, i64 noundef %2, ptr noalias noundef %3) #0 {
  %5 = alloca ptr, align 8
  %6 = alloca i32, align 4
  %7 = alloca i64, align 8
  %8 = alloca ptr, align 8
  %9 = alloca ptr, align 8
  %10 = alloca i64, align 8
  %11 = alloca i64, align 8
  %12 = alloca i64, align 8
  %13 = alloca i64, align 8
  store ptr %0, ptr %5, align 8, !tbaa !216
  store i32 %1, ptr %6, align 4, !tbaa !8
  store i64 %2, ptr %7, align 8, !tbaa !75
  store ptr %3, ptr %8, align 8, !tbaa !76
  call void @llvm.lifetime.start.p0(i64 8, ptr %9) #10
  %14 = load ptr, ptr %5, align 8, !tbaa !216
  %15 = getelementptr inbounds nuw %struct.H68, ptr %14, i32 0, i32 7
  %16 = load ptr, ptr %15, align 8, !tbaa !292
  store ptr %16, ptr %9, align 8, !tbaa !119
  call void @llvm.lifetime.start.p0(i64 8, ptr %10) #10
  %17 = load ptr, ptr %5, align 8, !tbaa !216
  %18 = getelementptr inbounds nuw %struct.H68, ptr %17, i32 0, i32 0
  %19 = load i64, ptr %18, align 8, !tbaa !287
  %20 = lshr i64 %19, 6
  store i64 %20, ptr %10, align 8, !tbaa !75
  %21 = load i32, ptr %6, align 4, !tbaa !8
  %22 = icmp ne i32 %21, 0
  br i1 %22, label %23, label %49

23:                                               ; preds = %4
  %24 = load i64, ptr %7, align 8, !tbaa !75
  %25 = load i64, ptr %10, align 8, !tbaa !75
  %26 = icmp ule i64 %24, %25
  br i1 %26, label %27, label %49

27:                                               ; preds = %23
  call void @llvm.lifetime.start.p0(i64 8, ptr %11) #10
  store i64 0, ptr %11, align 8, !tbaa !75
  br label %28

28:                                               ; preds = %45, %27
  %29 = load i64, ptr %11, align 8, !tbaa !75
  %30 = load i64, ptr %7, align 8, !tbaa !75
  %31 = icmp ult i64 %29, %30
  br i1 %31, label %32, label %48

32:                                               ; preds = %28
  call void @llvm.lifetime.start.p0(i64 8, ptr %12) #10
  %33 = load ptr, ptr %8, align 8, !tbaa !76
  %34 = load i64, ptr %11, align 8, !tbaa !75
  %35 = getelementptr inbounds nuw i8, ptr %33, i64 %34
  %36 = load ptr, ptr %5, align 8, !tbaa !216
  %37 = getelementptr inbounds nuw %struct.H68, ptr %36, i32 0, i32 2
  %38 = load i64, ptr %37, align 8, !tbaa !286
  %39 = call i64 @HashBytesH68(ptr noundef %35, i64 noundef %38)
  store i64 %39, ptr %12, align 8, !tbaa !75
  call void @llvm.lifetime.start.p0(i64 8, ptr %13) #10
  %40 = load i64, ptr %12, align 8, !tbaa !75
  %41 = lshr i64 %40, 8
  store i64 %41, ptr %13, align 8, !tbaa !75
  %42 = load ptr, ptr %9, align 8, !tbaa !119
  %43 = load i64, ptr %13, align 8, !tbaa !75
  %44 = getelementptr inbounds nuw i16, ptr %42, i64 %43
  store i16 -1, ptr %44, align 2, !tbaa !173
  call void @llvm.lifetime.end.p0(i64 8, ptr %13) #10
  call void @llvm.lifetime.end.p0(i64 8, ptr %12) #10
  br label %45

45:                                               ; preds = %32
  %46 = load i64, ptr %11, align 8, !tbaa !75
  %47 = add i64 %46, 1
  store i64 %47, ptr %11, align 8, !tbaa !75
  br label %28, !llvm.loop !326

48:                                               ; preds = %28
  call void @llvm.lifetime.end.p0(i64 8, ptr %11) #10
  br label %55

49:                                               ; preds = %23, %4
  %50 = load ptr, ptr %9, align 8, !tbaa !119
  %51 = load ptr, ptr %5, align 8, !tbaa !216
  %52 = getelementptr inbounds nuw %struct.H68, ptr %51, i32 0, i32 0
  %53 = load i64, ptr %52, align 8, !tbaa !287
  %54 = mul i64 %53, 2
  call void @llvm.memset.p0.i64(ptr align 2 %50, i8 -1, i64 %54, i1 false)
  br label %55

55:                                               ; preds = %49, %48
  call void @llvm.lifetime.end.p0(i64 8, ptr %10) #10
  call void @llvm.lifetime.end.p0(i64 8, ptr %9) #10
  ret void
}